Certificate:
    Data:
        Version: 3 (0x2)
        Serial Number:
            a9:e7:48:49:99:62:b6:95
        Signature Algorithm: sha1WithRSAEncryption
        Issuer: C=KP, ST=PyongYang, O=KCC, OU=Infosec, CN=CBCCCA
        Validity
            Not Before: Oct 28 03:02:21 2016 GMT
            Not After : Oct 28 03:02:21 2019 GMT
        Subject: C=KP, ST=PyongYang, O=KCC, OU=Infosec, CN=CBCCCA
        Subject Public Key Info:
            Public Key Algorithm: rsaEncryption
                Public-Key: (2048 bit)
                Modulus:
                    00:d8:6b:13:ef:0e:79:a0:90:72:a4:54:44:c9:ad:
                    a1:f6:5c:b2:24:a1:04:de:8e:4d:2f:81:47:79:7a:
                    8c:23:5b:2d:34:c5:44:ae:c4:ad:13:a4:8b:e3:47:
                    18:d2:bd:d1:5e:47:a6:a2:7b:3c:c7:db:5d:07:d6:
                    6e:4a:cf:d7:21:49:ff:e7:18:17:38:77:25:59:44:
                    96:ac:62:77:4a:ea:21:f4:42:cf:54:da:79:05:69:
                    44:ae:90:9c:3e:36:3c:23:0c:23:b7:c2:88:d5:5b:
                    c6:98:6d:39:64:85:68:71:80:5c:a6:d6:56:79:98:
                    fd:35:e7:7d:5a:1e:de:a6:16:57:ed:a4:fa:fa:f0:
                    c3:c5:cb:87:30:8b:d1:bb:84:b7:c2:c0:dd:10:fa:
                    79:71:c8:71:90:14:bf:62:d9:83:16:ff:ed:cf:43:
                    8f:a6:c6:16:eb:7d:fb:6f:9b:04:6e:54:41:68:de:
                    e4:64:d2:59:ea:a4:05:f6:46:1c:94:09:c0:aa:9e:
                    13:e8:94:4e:e9:b1:91:a0:c3:a4:bb:39:11:29:61:
                    49:8a:b4:f1:e0:98:40:c5:d9:47:bc:11:87:19:4c:
                    b8:c4:10:13:f4:cd:f1:54:80:19:5e:49:8f:40:d9:
                    81:7c:af:3b:18:a8:f1:0b:dd:64:7a:73:81:b4:47:
                    cd:d1
                Exponent: 65537 (0x10001)
        X509v3 extensions:
            X509v3 Subject Key Identifier: 
                D2:56:9B:92:5F:D9:5E:E6:89:D1:64:2A:71:00:8F:A3:EE:43:AC:2E
            X509v3 Authority Key Identifier: 
                keyid:D2:56:9B:92:5F:D9:5E:E6:89:D1:64:2A:71:00:8F:A3:EE:43:AC:2E

            X509v3 Basic Constraints: 
                CA:TRUE
    Signature Algorithm: sha1WithRSAEncryption
        13:46:56:b6:5d:b3:86:63:7f:dd:6f:47:bc:ea:03:78:99:17:
        6a:ba:1c:b0:88:41:88:c1:c5:f7:e1:04:1d:53:ac:ff:0e:64:
        6d:df:8e:8f:9e:eb:e7:74:49:2b:a3:37:e1:cf:4d:0d:5b:8b:
        c1:fa:e1:b7:b6:38:6f:76:62:73:ce:ca:9c:c2:ec:a4:97:97:
        ad:7b:fa:72:d5:71:09:a6:7c:50:82:21:4a:5b:3f:50:85:17:
        9a:97:fe:fc:83:a0:c1:ce:33:08:60:5b:be:b7:29:3b:e8:e8:
        56:ee:b6:30:0b:e5:a6:57:34:15:f5:0f:d3:16:48:c6:6a:10:
        8d:34:e9:3d:e7:15:80:8b:41:e7:7e:f5:67:70:68:41:07:61:
        50:59:89:d3:f1:dc:ba:fb:e9:e9:e1:81:42:e2:2a:13:c3:a2:
        27:ed:d4:db:c7:d0:17:ee:60:f3:a7:c6:ea:f0:f5:a0:23:73:
        76:be:b5:65:b4:5e:76:97:a8:0a:09:80:7a:a3:c7:a2:ce:74:
        b5:e0:87:52:d1:cb:f2:72:e9:75:d2:ab:81:51:ca:65:4b:8d:
        42:9e:13:73:c9:3a:fe:a4:ad:3e:fc:b6:06:00:8e:db:70:06:
        db:04:e6:82:0f:76:98:71:87:d8:ab:fd:8d:36:e6:cd:b8:25:
        31:27:4b:21
-----BEGIN CERTIFICATE-----
MIIDdzCCAl+gAwIBAgIJAKnnSEmZYraVMA0GCSqGSIb3DQEBBQUAMFIxCzAJBgNV
BAYTAktQMRIwEAYDVQQIDAlQeW9uZ1lhbmcxDDAKBgNVBAoMA0tDQzEQMA4GA1UE
CwwHSW5mb3NlYzEPMA0GA1UEAwwGQ0JDQ0NBMB4XDTE2MTAyODAzMDIyMVoXDTE5
MTAyODAzMDIyMVowUjELMAkGA1UEBhMCS1AxEjAQBgNVBAgMCVB5b25nWWFuZzEM
MAoGA1UECgwDS0NDMRAwDgYDVQQLDAdJbmZvc2VjMQ8wDQYDVQQDDAZDQkNDQ0Ew
ggEiMA0GCSqGSIb3DQEBAQUAA4IBDwAwggEKAoIBAQDYaxPvDnmgkHKkVETJraH2
XLIkoQTejk0vgUd5eowjWy00xUSuxK0TpIvjRxjSvdFeR6aiezzH210H1m5Kz9ch
Sf/nGBc4dyVZRJasYndK6iH0Qs9U2nkFaUSukJw+NjwjDCO3wojVW8aYbTlkhWhx
gFym1lZ5mP01531aHt6mFlftpPr68MPFy4cwi9G7hLfCwN0Q+nlxyHGQFL9i2YMW
/+3PQ4+mxhbrfftvmwRuVEFo3uRk0lnqpAX2RhyUCcCqnhPolE7psZGgw6S7OREp
YUmKtPHgmEDF2Ue8EYcZTLjEEBP0zfFUgBleSY9A2YF8rzsYqPEL3WR6c4G0R83R
AgMBAAGjUDBOMB0GA1UdDgQWBBTSVpuSX9le5onRZCpxAI+j7kOsLjAfBgNVHSME
GDAWgBTSVpuSX9le5onRZCpxAI+j7kOsLjAMBgNVHRMEBTADAQH/MA0GCSqGSIb3
DQEBBQUAA4IBAQATRla2XbOGY3/db0e86gN4mRdquhywiEGIwcX34QQdU6z/DmRt
346PnuvndEkrozfhz00NW4vB+uG3tjhvdmJzzsqcwuykl5ete/py1XEJpnxQgiFK
Wz9QhReal/78g6DBzjMIYFu+tyk76OhW7rYwC+WmVzQV9Q/TFkjGahCNNOk95xWA
i0HnfvVncGhBB2FQWYnT8dy6++np4YFC4ioTw6In7dTbx9AX7mDzp8bq8PWgI3N2
vrVltF52l6gKCYB6o8eiznS14IdS0cvycul10quBUcplS41CnhNzyTr+pK0+/LYG
AI7bcAbbBOaCD3aYcYfYq/2NNubNuCUxJ0sh
-----END CERTIFICATE-----
